target datalayout = "e-m:e-p270:32:32-p271:32:32-p272:64:64-i64:64-i128:128-f80:128-n8:16:32:64-S128"
target triple = "x86_64-pc-linux-gnu"

@hf_kafka_throttle_time = internal global i32 0, align 4
@ett_kafka_broker = internal global i32 0, align 4
@.str.669 = private unnamed_addr constant [7 x i8] c"Topics\00", align 1

; Function Attrs: null_pointer_is_valid sspstrong uwtable
define internal i32 @dissect_kafka_throttle_time(ptr noundef %0, ptr noundef %1, ptr noundef %2, i32 noundef %3) #0 {
  %5 = alloca ptr, align 8
  %6 = alloca ptr, align 8
  %7 = alloca ptr, align 8
  %8 = alloca i32, align 4
  store ptr %0, ptr %5, align 8
  store ptr %1, ptr %6, align 8
  store ptr %2, ptr %7, align 8
  store i32 %3, ptr %8, align 4
  %9 = load ptr, ptr %7, align 8
  %10 = load i32, ptr @hf_kafka_throttle_time, align 4
  %11 = load ptr, ptr %5, align 8
  %12 = load i32, ptr %8, align 4
  %13 = call ptr @proto_tree_add_item(ptr noundef %9, i32 noundef %10, ptr noundef %11, i32 noundef %12, i32 noundef 4, i32 noundef 0)
  %14 = load i32, ptr %8, align 4
  %15 = add i32 %14, 4
  store i32 %15, ptr %8, align 4
  %16 = load i32, ptr %8, align 4
  ret i32 %16
}

; Function Attrs: null_pointer_is_valid sspstrong uwtable
define internal i32 @dissect_kafka_offsets_response(ptr noundef %0, ptr noundef %1, ptr noundef %2, i32 noundef %3, i16 noundef signext %4) #0 {
  %6 = alloca ptr, align 8
  %7 = alloca ptr, align 8
  %8 = alloca ptr, align 8
  %9 = alloca i32, align 4
  %10 = alloca i16, align 2
  %11 = alloca ptr, align 8
  %12 = alloca ptr, align 8
  %13 = alloca i32, align 4
  store ptr %0, ptr %6, align 8
  store ptr %1, ptr %7, align 8
  store ptr %2, ptr %8, align 8
  store i32 %3, ptr %9, align 4
  store i16 %4, ptr %10, align 2
  call void @llvm.lifetime.start.p0(i64 8, ptr %11) #12
  call void @llvm.lifetime.start.p0(i64 8, ptr %12) #12
  call void @llvm.lifetime.start.p0(i64 4, ptr %13) #12
  %14 = load i32, ptr %9, align 4
  store i32 %14, ptr %13, align 4
  %15 = load i16, ptr %10, align 2
  %16 = sext i16 %15 to i32
  %17 = icmp sge i32 %16, 2
  br i1 %17, label %18, label %24

18:                                               ; preds = %5
  %19 = load ptr, ptr %6, align 8
  %20 = load ptr, ptr %7, align 8
  %21 = load ptr, ptr %8, align 8
  %22 = load i32, ptr %13, align 4
  %23 = call i32 @dissect_kafka_throttle_time(ptr noundef %19, ptr noundef %20, ptr noundef %21, i32 noundef %22)
  store i32 %23, ptr %13, align 4
  br label %24

24:                                               ; preds = %18, %5
  %25 = load ptr, ptr %8, align 8
  %26 = load ptr, ptr %6, align 8
  %27 = load i32, ptr %13, align 4
  %28 = load i32, ptr @ett_kafka_broker, align 4
  %29 = call ptr @proto_tree_add_subtree(ptr noundef %25, ptr noundef %26, i32 noundef %27, i32 noundef -1, i32 noundef %28, ptr noundef %11, ptr noundef @.str.669)
  store ptr %29, ptr %12, align 8
  %30 = load ptr, ptr %12, align 8
  %31 = load ptr, ptr %6, align 8
  %32 = load ptr, ptr %7, align 8
  %33 = load i32, ptr %13, align 4
  %34 = load i16, ptr %10, align 2
  %35 = sext i16 %34 to i32
  %36 = icmp sge i32 %35, 6
  %37 = zext i1 %36 to i32
  %38 = load i16, ptr %10, align 2
  %39 = call i32 @dissect_kafka_array(ptr noundef %30, ptr noundef %31, ptr noundef %32, i32 noundef %33, i32 noundef %37, i16 noundef signext %38, ptr noundef @dissect_kafka_offsets_response_topic, ptr noundef null)
  store i32 %39, ptr %13, align 4
  %40 = load ptr, ptr %11, align 8
  %41 = load ptr, ptr %6, align 8
  %42 = load i32, ptr %13, align 4
  call void @proto_item_set_end(ptr noundef %40, ptr noundef %41, i32 noundef %42)
  %43 = load i16, ptr %10, align 2
  %44 = sext i16 %43 to i32
  %45 = icmp sge i32 %44, 6
  br i1 %45, label %46, label %52

46:                                               ; preds = %24
  %47 = load ptr, ptr %6, align 8
  %48 = load ptr, ptr %7, align 8
  %49 = load ptr, ptr %8, align 8
  %50 = load i32, ptr %13, align 4
  %51 = call i32 @dissect_kafka_tagged_fields(ptr noundef %47, ptr noundef %48, ptr noundef %49, i32 noundef %50, i16 noundef signext 0)
  store i32 %51, ptr %13, align 4
  br label %52

52:                                               ; preds = %46, %24
  %53 = load i32, ptr %13, align 4
  call void @llvm.lifetime.end.p0(i64 4, ptr %13) #12
  call void @llvm.lifetime.end.p0(i64 8, ptr %12) #12
  call void @llvm.lifetime.end.p0(i64 8, ptr %11) #12
  ret i32 %53
}