; Function Attrs: null_pointer_is_valid sspstrong uwtable
define internal fastcc i32 @dissect_kafka_offsets_response(ptr noundef %0, ptr noundef %1, ptr noundef %2, i32 noundef %3, i16 noundef signext %4) unnamed_addr #0 {
  %6 = alloca ptr, align 8
  call void @llvm.lifetime.start.p0(i64 8, ptr nonnull %6) #9
  %7 = icmp sgt i16 %4, 1
  br i1 %7, label %8, label %12

8:                                                ; preds = %5
  %9 = load i32, ptr @hf_kafka_throttle_time, align 4
  %10 = tail call ptr @proto_tree_add_item(ptr noundef %2, i32 noundef %9, ptr noundef %0, i32 noundef %3, i32 noundef 4, i32 noundef 0)
  %11 = add i32 %3, 4
  br label %12

12:                                               ; preds = %8, %5
  %.0 = phi i32 [ %11, %8 ], [ %3, %5 ]
  %13 = load i32, ptr @ett_kafka_broker, align 4
  %14 = call ptr @proto_tree_add_subtree(ptr noundef %2, ptr noundef %0, i32 noundef %.0, i32 noundef -1, i32 noundef %13, ptr noundef nonnull %6, ptr noundef nonnull @.str.669)
  %15 = icmp sgt i16 %4, 5
  %16 = zext i1 %15 to i32
  %17 = call fastcc i32 @dissect_kafka_array(ptr noundef %14, ptr noundef %0, ptr noundef %1, i32 noundef %.0, i32 noundef %16, i16 noundef signext %4, ptr noundef nonnull @dissect_kafka_offsets_response_topic, ptr noundef null)
  %18 = load ptr, ptr %6, align 8
  call void @proto_item_set_end(ptr noundef %18, ptr noundef %0, i32 noundef %17)
  br i1 %15, label %19, label %21

19:                                               ; preds = %12
  %20 = call fastcc i32 @dissect_kafka_tagged_fields(ptr noundef %0, ptr noundef %1, ptr noundef %2, i32 noundef %17)
  br label %21

21:                                               ; preds = %19, %12
  %.1 = phi i32 [ %20, %19 ], [ %17, %12 ]
  call void @llvm.lifetime.end.p0(i64 8, ptr nonnull %6) #9
  ret i32 %.1
}